; Function Attrs: nofree nounwind uwtable
define void @Gia_ParComputeSignature(ptr noundef readonly captures(none) %0, i32 noundef %1) local_unnamed_addr #0 {
  %3 = alloca i64, align 8
  call void @llvm.lifetime.start.p0(i64 8, ptr nonnull %3) #18
  store i64 0, ptr %3, align 8, !tbaa !3
  %4 = getelementptr inbounds nuw i8, ptr %0, i64 72
  %5 = load ptr, ptr %4, align 8, !tbaa !7
  %6 = getelementptr i8, ptr %5, i64 4
  %.val = load i32, ptr %6, align 4, !tbaa !29
  %7 = icmp sgt i32 %.val, 0
  br i1 %7, label %.lr.ph26, label %.critedge

.lr.ph26:                                         ; preds = %2
  %8 = getelementptr i8, ptr %0, i64 32
  %.val14 = load ptr, ptr %8, align 8, !tbaa !30
  %.not = icmp eq ptr %.val14, null
  br i1 %.not, label %.critedge, label %.lr.ph26.split

.lr.ph26.split:                                   ; preds = %.lr.ph26
  %9 = getelementptr i8, ptr %0, i64 784
  %10 = getelementptr i8, ptr %0, i64 768
  %11 = getelementptr i8, ptr %5, i64 8
  %.val15.val = load ptr, ptr %11, align 8, !tbaa !31
  %.val17 = load ptr, ptr %10, align 8, !tbaa !32
  %.val18 = load i32, ptr %9, align 8, !tbaa !33
  %12 = icmp sgt i32 %.val18, 0
  br i1 %12, label %.lr.ph.us.preheader, label %.critedge

.lr.ph.us.preheader:                              ; preds = %.lr.ph26.split
  %wide.trip.count33 = zext nneg i32 %.val to i64
  %wide.trip.count = zext nneg i32 %.val18 to i64
  br label %.lr.ph.us

.lr.ph.us:                                        ; preds = %.lr.ph.us.preheader, %._crit_edge.us
  %indvars.iv30 = phi i64 [ 0, %.lr.ph.us.preheader ], [ %indvars.iv.next31, %._crit_edge.us ]
  %.promoted2223.us = phi i64 [ 0, %.lr.ph.us.preheader ], [ %22, %._crit_edge.us ]
  %13 = getelementptr inbounds nuw i32, ptr %.val15.val, i64 %indvars.iv30
  %14 = load i32, ptr %13, align 4, !tbaa !34
  %15 = mul nsw i32 %.val18, %14
  %16 = sext i32 %15 to i64
  %17 = getelementptr inbounds i64, ptr %.val17, i64 %16
  br label %18

18:                                               ; preds = %.lr.ph.us, %18
  %indvars.iv = phi i64 [ 0, %.lr.ph.us ], [ %indvars.iv.next, %18 ]
  %19 = phi i64 [ %.promoted2223.us, %.lr.ph.us ], [ %22, %18 ]
  %20 = getelementptr inbounds nuw i64, ptr %17, i64 %indvars.iv
  %21 = load i64, ptr %20, align 8, !tbaa !3
  %22 = xor i64 %19, %21
  store i64 %22, ptr %3, align 8, !tbaa !3
  %indvars.iv.next = add nuw nsw i64 %indvars.iv, 1
  %exitcond.not = icmp eq i64 %indvars.iv.next, %wide.trip.count
  br i1 %exitcond.not, label %._crit_edge.us, label %18, !llvm.loop !35

._crit_edge.us:                                   ; preds = %18
  %indvars.iv.next31 = add nuw nsw i64 %indvars.iv30, 1
  %exitcond34.not = icmp eq i64 %indvars.iv.next31, %wide.trip.count33
  br i1 %exitcond34.not, label %.critedge, label %.lr.ph.us, !llvm.loop !37

.critedge:                                        ; preds = %._crit_edge.us, %.lr.ph26.split, %.lr.ph26, %2
  %23 = load ptr, ptr @stdout, align 8, !tbaa !38
  br label %.preheader.i

.preheader.i:                                     ; preds = %33, %.critedge
  %.018.i = phi ptr [ %3, %.critedge ], [ %34, %33 ]
  br label %24

24:                                               ; preds = %24, %.preheader.i
  %indvars.iv.i = phi i64 [ 15, %.preheader.i ], [ %indvars.iv.next.i, %24 ]
  %25 = load i64, ptr %.018.i, align 8, !tbaa !3
  %26 = shl i64 %indvars.iv.i, 2
  %27 = lshr i64 %25, %26
  %28 = trunc i64 %27 to i32
  %29 = and i32 %28, 15
  %30 = icmp samesign ult i32 %29, 10
  %31 = or disjoint i32 %29, 48
  %32 = add nuw nsw i32 %29, 55
  %.0.i.i = select i1 %30, i32 %31, i32 %32
  %fputc.i = call i32 @fputc(i32 %.0.i.i, ptr %23)
  %indvars.iv.next.i = add nsw i64 %indvars.iv.i, -1
  %.not20.i = icmp eq i64 %indvars.iv.i, 0
  br i1 %.not20.i, label %33, label %24, !llvm.loop !40

33:                                               ; preds = %24
  %34 = getelementptr inbounds i8, ptr %.018.i, i64 -8
  %.not.i = icmp ult ptr %34, %3
  br i1 %.not.i, label %Abc_TtPrintHexRev.exit, label %.preheader.i, !llvm.loop !41

Abc_TtPrintHexRev.exit:                           ; preds = %33
  call void @llvm.lifetime.end.p0(i64 8, ptr nonnull %3) #18
  ret void
}